target datalayout = "e-m:e-p270:32:32-p271:32:32-p272:64:64-i64:64-i128:128-f80:128-n8:16:32:64-S128"
target triple = "x86_64-unknown-linux-gnu"

%"class.icu_75::Formattable" = type { %"class.icu_75::UObject", %union.anon, ptr, ptr, i32, %"class.icu_75::UnicodeString" }
%"class.icu_75::UObject" = type { ptr }
%union.anon = type { %struct.anon }
%struct.anon = type { ptr, i32 }
%"class.icu_75::UnicodeString" = type { %"class.icu_75::Replaceable", %"union.icu_75::UnicodeString::StackBufferOrFields" }
%"class.icu_75::Replaceable" = type { %"class.icu_75::UObject" }
%"union.icu_75::UnicodeString::StackBufferOrFields" = type { %struct.anon.1, [32 x i8] }
%struct.anon.1 = type { i16, i32, i32, ptr }

; Function Attrs: mustprogress nounwind uwtable
define linkonce_odr noundef i32 @_ZNK6icu_7513UnicodeString14getShortLengthEv(ptr noundef nonnull align 8 dereferenceable(64) %this) #0 comdat align 2 {
entry:
  %this.addr = alloca ptr, align 8
  store ptr %this, ptr %this.addr, align 8
  %this1 = load ptr, ptr %this.addr, align 8
  %fUnion = getelementptr inbounds %"class.icu_75::UnicodeString", ptr %this1, i32 0, i32 1
  %fLengthAndFlags = getelementptr inbounds %struct.anon.1, ptr %fUnion, i32 0, i32 0
  %0 = load i16, ptr %fLengthAndFlags, align 8
  %conv = sext i16 %0 to i32
  %shr = ashr i32 %conv, 5
  ret i32 %shr
}

; Function Attrs: mustprogress nounwind uwtable
define linkonce_odr noundef signext i8 @_ZNK6icu_7513UnicodeString14hasShortLengthEv(ptr noundef nonnull align 8 dereferenceable(64) %this) #0 comdat align 2 {
entry:
  %this.addr = alloca ptr, align 8
  store ptr %this, ptr %this.addr, align 8
  %this1 = load ptr, ptr %this.addr, align 8
  %fUnion = getelementptr inbounds %"class.icu_75::UnicodeString", ptr %this1, i32 0, i32 1
  %fLengthAndFlags = getelementptr inbounds %struct.anon.1, ptr %fUnion, i32 0, i32 0
  %0 = load i16, ptr %fLengthAndFlags, align 8
  %conv = sext i16 %0 to i32
  %cmp = icmp sge i32 %conv, 0
  %conv2 = zext i1 %cmp to i8
  ret i8 %conv2
}

; Function Attrs: mustprogress uwtable
define linkonce_odr noundef i32 @_ZNK6icu_7513UnicodeString6lengthEv(ptr noundef nonnull align 8 dereferenceable(64) %this) #1 comdat align 2 {
entry:
  %this.addr = alloca ptr, align 8
  store ptr %this, ptr %this.addr, align 8
  %this1 = load ptr, ptr %this.addr, align 8
  %call = call noundef signext i8 @_ZNK6icu_7513UnicodeString14hasShortLengthEv(ptr noundef nonnull align 8 dereferenceable(64) %this1)
  %tobool = icmp ne i8 %call, 0
  br i1 %tobool, label %cond.true, label %cond.false

cond.true:                                        ; preds = %entry
  %call2 = call noundef i32 @_ZNK6icu_7513UnicodeString14getShortLengthEv(ptr noundef nonnull align 8 dereferenceable(64) %this1)
  br label %cond.end

cond.false:                                       ; preds = %entry
  %fUnion = getelementptr inbounds %"class.icu_75::UnicodeString", ptr %this1, i32 0, i32 1
  %fLength = getelementptr inbounds %struct.anon.1, ptr %fUnion, i32 0, i32 1
  %0 = load i32, ptr %fLength, align 4
  br label %cond.end

cond.end:                                         ; preds = %cond.false, %cond.true
  %cond = phi i32 [ %call2, %cond.true ], [ %0, %cond.false ]
  ret i32 %cond
}

; Function Attrs: mustprogress nounwind uwtable
define linkonce_odr noundef signext i8 @_ZNK6icu_7513UnicodeString7isBogusEv(ptr noundef nonnull align 8 dereferenceable(64) %this) #0 comdat align 2 {
entry:
  %this.addr = alloca ptr, align 8
  store ptr %this, ptr %this.addr, align 8
  %this1 = load ptr, ptr %this.addr, align 8
  %fUnion = getelementptr inbounds %"class.icu_75::UnicodeString", ptr %this1, i32 0, i32 1
  %fLengthAndFlags = getelementptr inbounds %struct.anon.1, ptr %fUnion, i32 0, i32 0
  %0 = load i16, ptr %fLengthAndFlags, align 8
  %conv = sext i16 %0 to i32
  %and = and i32 %conv, 1
  %conv2 = trunc i32 %and to i8
  ret i8 %conv2
}

; Function Attrs: mustprogress uwtable
define internal noundef signext i8 @_ZN6icu_75L12objectEqualsEPKNS_7UObjectES2_(ptr noundef %a, ptr noundef %b) #1 {
entry:
  %a.addr = alloca ptr, align 8
  %b.addr = alloca ptr, align 8
  store ptr %a, ptr %a.addr, align 8
  store ptr %b, ptr %b.addr, align 8
  %0 = load ptr, ptr %a.addr, align 8
  %1 = load ptr, ptr %b.addr, align 8
  %call = call noundef zeroext i1 @_ZNK6icu_757MeasureeqERKNS_7UObjectE(ptr noundef nonnull align 8 dereferenceable(128) %0, ptr noundef nonnull align 8 dereferenceable(8) %1)
  %conv = zext i1 %call to i8
  ret i8 %conv
}

; Function Attrs: mustprogress uwtable
define linkonce_odr noundef zeroext i1 @_ZNK6icu_7511FormattableneERKS0_(ptr noundef nonnull align 8 dereferenceable(112) %this, ptr noundef nonnull align 8 dereferenceable(112) %other) #1 comdat align 2 {
entry:
  %this.addr = alloca ptr, align 8
  %other.addr = alloca ptr, align 8
  store ptr %this, ptr %this.addr, align 8
  store ptr %other, ptr %other.addr, align 8
  %this1 = load ptr, ptr %this.addr, align 8
  %0 = load ptr, ptr %other.addr, align 8
  %call = call noundef zeroext i1 @_ZNK6icu_7511FormattableeqERKS0_(ptr noundef nonnull align 8 dereferenceable(112) %this1, ptr noundef nonnull align 8 dereferenceable(112) %0)
  %lnot = xor i1 %call, true
  ret i1 %lnot
}

; Function Attrs: mustprogress uwtable
define linkonce_odr noundef zeroext i1 @_ZNK6icu_7513UnicodeStringeqERKS0_(ptr noundef nonnull align 8 dereferenceable(64) %this, ptr noundef nonnull align 8 dereferenceable(64) %text) #1 comdat align 2 {
entry:
  %retval = alloca i1, align 1
  %this.addr = alloca ptr, align 8
  %text.addr = alloca ptr, align 8
  %len = alloca i32, align 4
  %textLength = alloca i32, align 4
  store ptr %this, ptr %this.addr, align 8
  store ptr %text, ptr %text.addr, align 8
  %this1 = load ptr, ptr %this.addr, align 8
  %call = call noundef signext i8 @_ZNK6icu_7513UnicodeString7isBogusEv(ptr noundef nonnull align 8 dereferenceable(64) %this1)
  %tobool = icmp ne i8 %call, 0
  br i1 %tobool, label %if.then, label %if.else

if.then:                                          ; preds = %entry
  %0 = load ptr, ptr %text.addr, align 8
  %call2 = call noundef signext i8 @_ZNK6icu_7513UnicodeString7isBogusEv(ptr noundef nonnull align 8 dereferenceable(64) %0)
  %tobool3 = icmp ne i8 %call2, 0
  store i1 %tobool3, ptr %retval, align 1
  br label %return

if.else:                                          ; preds = %entry
  %call4 = call noundef i32 @_ZNK6icu_7513UnicodeString6lengthEv(ptr noundef nonnull align 8 dereferenceable(64) %this1)
  store i32 %call4, ptr %len, align 4
  %1 = load ptr, ptr %text.addr, align 8
  %call5 = call noundef i32 @_ZNK6icu_7513UnicodeString6lengthEv(ptr noundef nonnull align 8 dereferenceable(64) %1)
  store i32 %call5, ptr %textLength, align 4
  %2 = load ptr, ptr %text.addr, align 8
  %call6 = call noundef signext i8 @_ZNK6icu_7513UnicodeString7isBogusEv(ptr noundef nonnull align 8 dereferenceable(64) %2)
  %tobool7 = icmp ne i8 %call6, 0
  br i1 %tobool7, label %land.end, label %land.lhs.true

land.lhs.true:                                    ; preds = %if.else
  %3 = load i32, ptr %len, align 4
  %4 = load i32, ptr %textLength, align 4
  %cmp = icmp eq i32 %3, %4
  br i1 %cmp, label %land.rhs, label %land.end

land.rhs:                                         ; preds = %land.lhs.true
  %5 = load ptr, ptr %text.addr, align 8
  %6 = load i32, ptr %len, align 4
  %call8 = call noundef signext i8 @_ZNK6icu_7513UnicodeString8doEqualsERKS0_i(ptr noundef nonnull align 8 dereferenceable(64) %this1, ptr noundef nonnull align 8 dereferenceable(64) %5, i32 noundef %6)
  %tobool9 = icmp ne i8 %call8, 0
  br label %land.end

land.end:                                         ; preds = %land.rhs, %land.lhs.true, %if.else
  %7 = phi i1 [ false, %land.lhs.true ], [ false, %if.else ], [ %tobool9, %land.rhs ]
  store i1 %7, ptr %retval, align 1
  br label %return

return:                                           ; preds = %land.end, %if.then
  %8 = load i1, ptr %retval, align 1
  ret i1 %8
}

; Function Attrs: mustprogress uwtable
define noundef zeroext i1 @_ZNK6icu_7511FormattableeqERKS0_(ptr noundef nonnull align 8 dereferenceable(112) %this, ptr noundef nonnull align 8 dereferenceable(112) %that) #1 align 2 {
entry:
  %retval = alloca i1, align 1
  %this.addr = alloca ptr, align 8
  %that.addr = alloca ptr, align 8
  %i = alloca i32, align 4
  %equal = alloca i8, align 1
  store ptr %this, ptr %this.addr, align 8
  store ptr %that, ptr %that.addr, align 8
  %this1 = load ptr, ptr %this.addr, align 8
  %0 = load ptr, ptr %that.addr, align 8
  %cmp = icmp eq ptr %this1, %0
  br i1 %cmp, label %if.then, label %if.end

if.then:                                          ; preds = %entry
  store i1 true, ptr %retval, align 1
  br label %return

if.end:                                           ; preds = %entry
  %fType = getelementptr inbounds %"class.icu_75::Formattable", ptr %this1, i32 0, i32 4
  %1 = load i32, ptr %fType, align 8
  %2 = load ptr, ptr %that.addr, align 8
  %fType2 = getelementptr inbounds %"class.icu_75::Formattable", ptr %2, i32 0, i32 4
  %3 = load i32, ptr %fType2, align 8
  %cmp3 = icmp ne i32 %1, %3
  br i1 %cmp3, label %if.then4, label %if.end5

if.then4:                                         ; preds = %if.end
  store i1 false, ptr %retval, align 1
  br label %return

if.end5:                                          ; preds = %if.end
  store i8 1, ptr %equal, align 1
  %fType6 = getelementptr inbounds %"class.icu_75::Formattable", ptr %this1, i32 0, i32 4
  %4 = load i32, ptr %fType6, align 8
  switch i32 %4, label %sw.epilog [
    i32 0, label %sw.bb
    i32 1, label %sw.bb9
    i32 2, label %sw.bb14
    i32 5, label %sw.bb14
    i32 3, label %sw.bb19
    i32 4, label %sw.bb23
    i32 6, label %sw.bb41
  ]

sw.bb:                                            ; preds = %if.end5
  %fValue = getelementptr inbounds %"class.icu_75::Formattable", ptr %this1, i32 0, i32 1
  %5 = load double, ptr %fValue, align 8
  %6 = load ptr, ptr %that.addr, align 8
  %fValue7 = getelementptr inbounds %"class.icu_75::Formattable", ptr %6, i32 0, i32 1
  %7 = load double, ptr %fValue7, align 8
  %cmp8 = fcmp oeq double %5, %7
  %frombool = zext i1 %cmp8 to i8
  store i8 %frombool, ptr %equal, align 1
  br label %sw.epilog

sw.bb9:                                           ; preds = %if.end5
  %fValue10 = getelementptr inbounds %"class.icu_75::Formattable", ptr %this1, i32 0, i32 1
  %8 = load double, ptr %fValue10, align 8
  %9 = load ptr, ptr %that.addr, align 8
  %fValue11 = getelementptr inbounds %"class.icu_75::Formattable", ptr %9, i32 0, i32 1
  %10 = load double, ptr %fValue11, align 8
  %cmp12 = fcmp oeq double %8, %10
  %frombool13 = zext i1 %cmp12 to i8
  store i8 %frombool13, ptr %equal, align 1
  br label %sw.epilog

sw.bb14:                                          ; preds = %if.end5, %if.end5
  %fValue15 = getelementptr inbounds %"class.icu_75::Formattable", ptr %this1, i32 0, i32 1
  %11 = load i64, ptr %fValue15, align 8
  %12 = load ptr, ptr %that.addr, align 8
  %fValue16 = getelementptr inbounds %"class.icu_75::Formattable", ptr %12, i32 0, i32 1
  %13 = load i64, ptr %fValue16, align 8
  %cmp17 = icmp eq i64 %11, %13
  %frombool18 = zext i1 %cmp17 to i8
  store i8 %frombool18, ptr %equal, align 1
  br label %sw.epilog

sw.bb19:                                          ; preds = %if.end5
  %fValue20 = getelementptr inbounds %"class.icu_75::Formattable", ptr %this1, i32 0, i32 1
  %14 = load ptr, ptr %fValue20, align 8
  %15 = load ptr, ptr %that.addr, align 8
  %fValue21 = getelementptr inbounds %"class.icu_75::Formattable", ptr %15, i32 0, i32 1
  %16 = load ptr, ptr %fValue21, align 8
  %call = call noundef zeroext i1 @_ZNK6icu_7513UnicodeStringeqERKS0_(ptr noundef nonnull align 8 dereferenceable(64) %14, ptr noundef nonnull align 8 dereferenceable(64) %16)
  %frombool22 = zext i1 %call to i8
  store i8 %frombool22, ptr %equal, align 1
  br label %sw.epilog

sw.bb23:                                          ; preds = %if.end5
  %fValue24 = getelementptr inbounds %"class.icu_75::Formattable", ptr %this1, i32 0, i32 1
  %fCount = getelementptr inbounds %struct.anon, ptr %fValue24, i32 0, i32 1
  %17 = load i32, ptr %fCount, align 8
  %18 = load ptr, ptr %that.addr, align 8
  %fValue25 = getelementptr inbounds %"class.icu_75::Formattable", ptr %18, i32 0, i32 1
  %fCount26 = getelementptr inbounds %struct.anon, ptr %fValue25, i32 0, i32 1
  %19 = load i32, ptr %fCount26, align 8
  %cmp27 = icmp ne i32 %17, %19
  br i1 %cmp27, label %if.then28, label %if.end29

if.then28:                                        ; preds = %sw.bb23
  store i8 0, ptr %equal, align 1
  br label %sw.epilog

if.end29:                                         ; preds = %sw.bb23
  store i32 0, ptr %i, align 4
  br label %for.cond

for.cond:                                         ; preds = %for.inc, %if.end29
  %20 = load i32, ptr %i, align 4
  %fValue30 = getelementptr inbounds %"class.icu_75::Formattable", ptr %this1, i32 0, i32 1
  %fCount31 = getelementptr inbounds %struct.anon, ptr %fValue30, i32 0, i32 1
  %21 = load i32, ptr %fCount31, align 8
  %cmp32 = icmp slt i32 %20, %21
  br i1 %cmp32, label %for.body, label %for.end

for.body:                                         ; preds = %for.cond
  %fValue33 = getelementptr inbounds %"class.icu_75::Formattable", ptr %this1, i32 0, i32 1
  %fArray = getelementptr inbounds %struct.anon, ptr %fValue33, i32 0, i32 0
  %22 = load ptr, ptr %fArray, align 8
  %23 = load i32, ptr %i, align 4
  %idxprom = sext i32 %23 to i64
  %arrayidx = getelementptr inbounds %"class.icu_75::Formattable", ptr %22, i64 %idxprom
  %24 = load ptr, ptr %that.addr, align 8
  %fValue34 = getelementptr inbounds %"class.icu_75::Formattable", ptr %24, i32 0, i32 1
  %fArray35 = getelementptr inbounds %struct.anon, ptr %fValue34, i32 0, i32 0
  %25 = load ptr, ptr %fArray35, align 8
  %26 = load i32, ptr %i, align 4
  %idxprom36 = sext i32 %26 to i64
  %arrayidx37 = getelementptr inbounds %"class.icu_75::Formattable", ptr %25, i64 %idxprom36
  %call38 = call noundef zeroext i1 @_ZNK6icu_7511FormattableneERKS0_(ptr noundef nonnull align 8 dereferenceable(112) %arrayidx, ptr noundef nonnull align 8 dereferenceable(112) %arrayidx37)
  br i1 %call38, label %if.then39, label %if.end40

if.then39:                                        ; preds = %for.body
  store i8 0, ptr %equal, align 1
  br label %for.end

if.end40:                                         ; preds = %for.body
  br label %for.inc

for.inc:                                          ; preds = %if.end40
  %27 = load i32, ptr %i, align 4
  %inc = add nsw i32 %27, 1
  store i32 %inc, ptr %i, align 4
  br label %for.cond, !llvm.loop !6

for.end:                                          ; preds = %if.then39, %for.cond
  br label %sw.epilog

sw.bb41:                                          ; preds = %if.end5
  %fValue42 = getelementptr inbounds %"class.icu_75::Formattable", ptr %this1, i32 0, i32 1
  %28 = load ptr, ptr %fValue42, align 8
  %cmp43 = icmp eq ptr %28, null
  br i1 %cmp43, label %if.then46, label %lor.lhs.false

lor.lhs.false:                                    ; preds = %sw.bb41
  %29 = load ptr, ptr %that.addr, align 8
  %fValue44 = getelementptr inbounds %"class.icu_75::Formattable", ptr %29, i32 0, i32 1
  %30 = load ptr, ptr %fValue44, align 8
  %cmp45 = icmp eq ptr %30, null
  br i1 %cmp45, label %if.then46, label %if.else

if.then46:                                        ; preds = %lor.lhs.false, %sw.bb41
  store i8 0, ptr %equal, align 1
  br label %if.end51

if.else:                                          ; preds = %lor.lhs.false
  %fValue47 = getelementptr inbounds %"class.icu_75::Formattable", ptr %this1, i32 0, i32 1
  %31 = load ptr, ptr %fValue47, align 8
  %32 = load ptr, ptr %that.addr, align 8
  %fValue48 = getelementptr inbounds %"class.icu_75::Formattable", ptr %32, i32 0, i32 1
  %33 = load ptr, ptr %fValue48, align 8
  %call49 = call noundef signext i8 @_ZN6icu_75L12objectEqualsEPKNS_7UObjectES2_(ptr noundef %31, ptr noundef %33)
  %tobool = icmp ne i8 %call49, 0
  %frombool50 = zext i1 %tobool to i8
  store i8 %frombool50, ptr %equal, align 1
  br label %if.end51

if.end51:                                         ; preds = %if.else, %if.then46
  br label %sw.epilog

sw.epilog:                                        ; preds = %if.end51, %for.end, %if.then28, %sw.bb19, %sw.bb14, %sw.bb9, %sw.bb, %if.end5
  %34 = load i8, ptr %equal, align 1
  %tobool52 = trunc i8 %34 to i1
  store i1 %tobool52, ptr %retval, align 1
  br label %return

return:                                           ; preds = %sw.epilog, %if.then4, %if.then
  %35 = load i1, ptr %retval, align 1
  ret i1 %35
}