; Function Attrs: mustprogress uwtable
define noundef zeroext i1 @_ZNK6icu_7511FormattableeqERKS0_(ptr noundef nonnull readonly align 8 dereferenceable(112) %this, ptr noundef nonnull readonly align 8 dereferenceable(112) %that) local_unnamed_addr #1 align 2 {
entry:
  %cmp = icmp eq ptr %this, %that
  br i1 %cmp, label %return, label %if.end

if.end:                                           ; preds = %entry
  %fType = getelementptr inbounds i8, ptr %this, i64 40
  %0 = load i32, ptr %fType, align 8
  %fType2 = getelementptr inbounds i8, ptr %that, i64 40
  %1 = load i32, ptr %fType2, align 8
  %cmp3.not = icmp eq i32 %0, %1
  br i1 %cmp3.not, label %if.end5, label %return

if.end5:                                          ; preds = %if.end
  switch i32 %0, label %return [
    i32 0, label %sw.bb
    i32 1, label %sw.bb9
    i32 2, label %sw.bb14
    i32 5, label %sw.bb14
    i32 3, label %sw.bb19
    i32 4, label %sw.bb23
    i32 6, label %sw.bb41
  ]

sw.bb:                                            ; preds = %if.end5
  %fValue = getelementptr inbounds i8, ptr %this, i64 8
  %2 = load double, ptr %fValue, align 8
  %fValue7 = getelementptr inbounds i8, ptr %that, i64 8
  %3 = load double, ptr %fValue7, align 8
  %cmp8 = fcmp oeq double %2, %3
  br label %return

sw.bb9:                                           ; preds = %if.end5
  %fValue10 = getelementptr inbounds i8, ptr %this, i64 8
  %4 = load double, ptr %fValue10, align 8
  %fValue11 = getelementptr inbounds i8, ptr %that, i64 8
  %5 = load double, ptr %fValue11, align 8
  %cmp12 = fcmp oeq double %4, %5
  br label %return

sw.bb14:                                          ; preds = %if.end5, %if.end5
  %fValue15 = getelementptr inbounds i8, ptr %this, i64 8
  %6 = load i64, ptr %fValue15, align 8
  %fValue16 = getelementptr inbounds i8, ptr %that, i64 8
  %7 = load i64, ptr %fValue16, align 8
  %cmp17 = icmp eq i64 %6, %7
  br label %return

sw.bb19:                                          ; preds = %if.end5
  %fValue20 = getelementptr inbounds i8, ptr %this, i64 8
  %8 = load ptr, ptr %fValue20, align 8
  %fValue21 = getelementptr inbounds i8, ptr %that, i64 8
  %9 = load ptr, ptr %fValue21, align 8
  %fUnion.i.i = getelementptr inbounds i8, ptr %8, i64 8
  %10 = load i16, ptr %fUnion.i.i, align 8
  %conv2.i14.i = and i16 %10, 1
  %tobool.not.i = icmp eq i16 %conv2.i14.i, 0
  br i1 %tobool.not.i, label %if.else.i, label %if.then.i

if.then.i:                                        ; preds = %sw.bb19
  %fUnion.i5.i = getelementptr inbounds i8, ptr %9, i64 8
  %11 = load i16, ptr %fUnion.i5.i, align 8
  %conv2.i615.i = and i16 %11, 1
  %tobool3.i = icmp ne i16 %conv2.i615.i, 0
  br label %return

if.else.i:                                        ; preds = %sw.bb19
  %cmp.i.i.i = icmp slt i16 %10, 0
  %12 = ashr i16 %10, 5
  %shr.i.i.i = sext i16 %12 to i32
  %fLength.i.i = getelementptr inbounds i8, ptr %8, i64 12
  %13 = load i32, ptr %fLength.i.i, align 4
  %cond.i.i = select i1 %cmp.i.i.i, i32 %13, i32 %shr.i.i.i
  %fUnion.i.i7.i = getelementptr inbounds i8, ptr %9, i64 8
  %14 = load i16, ptr %fUnion.i.i7.i, align 8
  %cmp.i.i8.i = icmp slt i16 %14, 0
  %15 = ashr i16 %14, 5
  %shr.i.i9.i = sext i16 %15 to i32
  %fLength.i10.i = getelementptr inbounds i8, ptr %9, i64 12
  %16 = load i32, ptr %fLength.i10.i, align 4
  %cond.i11.i = select i1 %cmp.i.i8.i, i32 %16, i32 %shr.i.i9.i
  %conv2.i1316.i = and i16 %14, 1
  %tobool7.not.i = icmp eq i16 %conv2.i1316.i, 0
  %cmp.i = icmp eq i32 %cond.i.i, %cond.i11.i
  %or.cond.i = and i1 %tobool7.not.i, %cmp.i
  br i1 %or.cond.i, label %land.rhs.i, label %return

land.rhs.i:                                       ; preds = %if.else.i
  %call8.i = tail call noundef signext i8 @_ZNK6icu_7513UnicodeString8doEqualsERKS0_i(ptr noundef nonnull align 8 dereferenceable(64) %8, ptr noundef nonnull align 8 dereferenceable(64) %9, i32 noundef %cond.i.i)
  %tobool9.i = icmp ne i8 %call8.i, 0
  br label %return

sw.bb23:                                          ; preds = %if.end5
  %fValue24 = getelementptr inbounds i8, ptr %this, i64 8
  %fCount = getelementptr inbounds i8, ptr %this, i64 16
  %17 = load i32, ptr %fCount, align 8
  %fValue25 = getelementptr inbounds i8, ptr %that, i64 8
  %fCount26 = getelementptr inbounds i8, ptr %that, i64 16
  %18 = load i32, ptr %fCount26, align 8
  %cmp27.not = icmp eq i32 %17, %18
  br i1 %cmp27.not, label %for.cond.preheader, label %return

for.cond.preheader:                               ; preds = %sw.bb23
  %cmp3216 = icmp sgt i32 %17, 0
  br i1 %cmp3216, label %for.body, label %return

for.cond:                                         ; preds = %for.body
  %indvars.iv.next = add nuw nsw i64 %indvars.iv, 1
  %19 = load i32, ptr %fCount, align 8
  %20 = sext i32 %19 to i64
  %cmp32 = icmp slt i64 %indvars.iv.next, %20
  br i1 %cmp32, label %for.body, label %return, !llvm.loop !6

for.body:                                         ; preds = %for.cond.preheader, %for.cond
  %indvars.iv = phi i64 [ %indvars.iv.next, %for.cond ], [ 0, %for.cond.preheader ]
  %21 = load ptr, ptr %fValue24, align 8
  %arrayidx = getelementptr inbounds %"class.icu_75::Formattable", ptr %21, i64 %indvars.iv
  %22 = load ptr, ptr %fValue25, align 8
  %arrayidx37 = getelementptr inbounds %"class.icu_75::Formattable", ptr %22, i64 %indvars.iv
  %call.i = tail call noundef zeroext i1 @_ZNK6icu_7511FormattableeqERKS0_(ptr noundef nonnull align 8 dereferenceable(112) %arrayidx, ptr noundef nonnull align 8 dereferenceable(112) %arrayidx37)
  br i1 %call.i, label %for.cond, label %return

sw.bb41:                                          ; preds = %if.end5
  %fValue42 = getelementptr inbounds i8, ptr %this, i64 8
  %23 = load ptr, ptr %fValue42, align 8
  %cmp43 = icmp eq ptr %23, null
  br i1 %cmp43, label %return, label %lor.lhs.false

lor.lhs.false:                                    ; preds = %sw.bb41
  %fValue44 = getelementptr inbounds i8, ptr %that, i64 8
  %24 = load ptr, ptr %fValue44, align 8
  %cmp45 = icmp eq ptr %24, null
  br i1 %cmp45, label %return, label %if.else

if.else:                                          ; preds = %lor.lhs.false
  %call.i15 = tail call noundef zeroext i1 @_ZNK6icu_757MeasureeqERKNS_7UObjectE(ptr noundef nonnull align 8 dereferenceable(128) %23, ptr noundef nonnull align 8 dereferenceable(8) %24)
  br label %return

return:                                           ; preds = %for.body, %for.cond, %for.cond.preheader, %land.rhs.i, %if.else.i, %if.then.i, %if.end5, %sw.bb, %sw.bb9, %sw.bb14, %if.else, %sw.bb23, %lor.lhs.false, %sw.bb41, %if.end, %entry
  %retval.0 = phi i1 [ true, %entry ], [ false, %if.end ], [ true, %if.end5 ], [ %call.i15, %if.else ], [ %cmp17, %sw.bb14 ], [ %cmp12, %sw.bb9 ], [ %cmp8, %sw.bb ], [ false, %sw.bb23 ], [ false, %lor.lhs.false ], [ false, %sw.bb41 ], [ %tobool3.i, %if.then.i ], [ false, %if.else.i ], [ %tobool9.i, %land.rhs.i ], [ true, %for.cond.preheader ], [ %call.i, %for.cond ], [ %call.i, %for.body ]
  ret i1 %retval.0
}